target datalayout = "e-m:e-p270:32:32-p271:32:32-p272:64:64-i64:64-i128:128-f80:128-n8:16:32:64-S128"
target triple = "x86_64-pc-linux-gnu"

%struct.malloc_params = type { i64, i64, i64, i64, i64, i32 }
%struct.malloc_state = type { i32, i32, i64, i64, ptr, ptr, ptr, i64, i64, i64, [66 x ptr], [32 x ptr], i64, i64, i64, i32, i32, %struct.malloc_segment, ptr, i64 }
%struct.malloc_segment = type { ptr, i64, ptr, i32 }

@mparams = internal global %struct.malloc_params zeroinitializer, align 8
@_gm_ = internal global %struct.malloc_state zeroinitializer, align 8

; Function Attrs: nounwind uwtable
define internal i32 @spin_acquire_lock(ptr noundef %0) #0 {
  %2 = alloca ptr, align 8
  %3 = alloca i32, align 4
  store ptr %0, ptr %2, align 8, !tbaa !16
  call void @llvm.lifetime.start.p0(i64 4, ptr %3) #9
  store i32 0, ptr %3, align 4, !tbaa !14
  br label %4

4:                                                ; preds = %21, %1
  %5 = load ptr, ptr %2, align 8, !tbaa !16
  %6 = load volatile i32, ptr %5, align 4, !tbaa !14
  %7 = icmp ne i32 %6, 0
  br i1 %7, label %12, label %8

8:                                                ; preds = %4
  %9 = load ptr, ptr %2, align 8, !tbaa !16
  %10 = atomicrmw xchg ptr %9, i32 1 seq_cst, align 4
  %11 = icmp ne i32 %10, 0
  br label %12

12:                                               ; preds = %8, %4
  %13 = phi i1 [ true, %4 ], [ %11, %8 ]
  br i1 %13, label %14, label %22

14:                                               ; preds = %12
  %15 = load i32, ptr %3, align 4, !tbaa !14
  %16 = add nsw i32 %15, 1
  store i32 %16, ptr %3, align 4, !tbaa !14
  %17 = and i32 %16, 63
  %18 = icmp eq i32 %17, 0
  br i1 %18, label %19, label %21

19:                                               ; preds = %14
  %20 = call i32 @sched_yield() #9
  br label %21

21:                                               ; preds = %19, %14
  br label %4, !llvm.loop !34

22:                                               ; preds = %12
  call void @llvm.lifetime.end.p0(i64 4, ptr %3) #9
  ret i32 0
}

; Function Attrs: nounwind uwtable
define hidden i32 @dlmalloc_trim(i64 noundef %0) #0 {
  %2 = alloca i64, align 8
  %3 = alloca i32, align 4
  store i64 %0, ptr %2, align 8, !tbaa !3
  call void @llvm.lifetime.start.p0(i64 4, ptr %3) #9
  store i32 0, ptr %3, align 4, !tbaa !14
  %4 = load i64, ptr @mparams, align 8, !tbaa !7
  %5 = icmp ne i64 %4, 0
  br i1 %5, label %8, label %6

6:                                                ; preds = %1
  %7 = call i32 @init_mparams()
  br label %8

8:                                                ; preds = %6, %1
  %9 = load i32, ptr getelementptr inbounds nuw (%struct.malloc_state, ptr @_gm_, i32 0, i32 15), align 8, !tbaa !10
  %10 = and i32 %9, 2
  %11 = icmp ne i32 %10, 0
  br i1 %11, label %12, label %19

12:                                               ; preds = %8
  %13 = atomicrmw xchg ptr getelementptr inbounds nuw (%struct.malloc_state, ptr @_gm_, i32 0, i32 16), i32 1 seq_cst, align 4
  %14 = icmp ne i32 %13, 0
  br i1 %14, label %15, label %18

15:                                               ; preds = %12
  %16 = call i32 @spin_acquire_lock(ptr noundef getelementptr inbounds nuw (%struct.malloc_state, ptr @_gm_, i32 0, i32 16))
  %17 = icmp ne i32 %16, 0
  br i1 %17, label %28, label %20

18:                                               ; preds = %12
  br i1 false, label %28, label %20

19:                                               ; preds = %8
  br i1 false, label %28, label %20

20:                                               ; preds = %19, %18, %15
  %21 = load i64, ptr %2, align 8, !tbaa !3
  %22 = call i32 @sys_trim(ptr noundef @_gm_, i64 noundef %21)
  store i32 %22, ptr %3, align 4, !tbaa !14
  %23 = load i32, ptr getelementptr inbounds nuw (%struct.malloc_state, ptr @_gm_, i32 0, i32 15), align 8, !tbaa !10
  %24 = and i32 %23, 2
  %25 = icmp ne i32 %24, 0
  br i1 %25, label %26, label %27

26:                                               ; preds = %20
  store atomic i32 0, ptr getelementptr inbounds nuw (%struct.malloc_state, ptr @_gm_, i32 0, i32 16) release, align 4
  br label %27

27:                                               ; preds = %26, %20
  br label %28

28:                                               ; preds = %27, %19, %18, %15
  %29 = load i32, ptr %3, align 4, !tbaa !14
  call void @llvm.lifetime.end.p0(i64 4, ptr %3) #9
  ret i32 %29
}