; Function Attrs: nounwind uwtable
define hidden range(i32 0, 2) i32 @dlmalloc_trim(i64 noundef %0) local_unnamed_addr #0 {
  %2 = load i64, ptr @mparams, align 8, !tbaa !3
  %.not = icmp eq i64 %2, 0
  br i1 %.not, label %3, label %4

3:                                                ; preds = %1
  tail call fastcc void @init_mparams()
  br label %4

4:                                                ; preds = %3, %1
  %5 = load i32, ptr getelementptr inbounds nuw (i8, ptr @_gm_, i64 880), align 8, !tbaa !9
  %6 = and i32 %5, 2
  %.not2 = icmp eq i32 %6, 0
  br i1 %.not2, label %spin_acquire_lock.exit, label %7

7:                                                ; preds = %4
  %8 = atomicrmw xchg ptr getelementptr inbounds nuw (i8, ptr @_gm_, i64 884), i32 1 seq_cst, align 4
  %.not3 = icmp eq i32 %8, 0
  br i1 %.not3, label %spin_acquire_lock.exit, label %.preheader

.preheader:                                       ; preds = %7, %.preheader.backedge
  %.0.i = phi i32 [ %12, %.preheader.backedge ], [ 0, %7 ]
  %9 = load volatile i32, ptr getelementptr inbounds nuw (i8, ptr @_gm_, i64 884), align 4, !tbaa !13
  %.not.i = icmp eq i32 %9, 0
  br i1 %.not.i, label %10, label %.critedge.i

10:                                               ; preds = %.preheader
  %11 = atomicrmw xchg ptr getelementptr inbounds nuw (i8, ptr @_gm_, i64 884), i32 1 seq_cst, align 4
  %.not2.i = icmp eq i32 %11, 0
  br i1 %.not2.i, label %spin_acquire_lock.exit, label %.critedge.i

.critedge.i:                                      ; preds = %10, %.preheader
  %12 = add nuw nsw i32 %.0.i, 1
  %13 = and i32 %12, 63
  %14 = icmp eq i32 %13, 0
  br i1 %14, label %15, label %.preheader.backedge

15:                                               ; preds = %.critedge.i
  %16 = tail call i32 @sched_yield() #17
  br label %.preheader.backedge

.preheader.backedge:                              ; preds = %15, %.critedge.i
  br label %.preheader, !llvm.loop !14

spin_acquire_lock.exit:                           ; preds = %10, %4, %7
  %17 = tail call fastcc i32 @sys_trim(ptr noundef nonnull @_gm_, i64 noundef %0)
  %18 = load i32, ptr getelementptr inbounds nuw (i8, ptr @_gm_, i64 880), align 8, !tbaa !9
  %19 = and i32 %18, 2
  %.not4 = icmp eq i32 %19, 0
  br i1 %.not4, label %21, label %20

20:                                               ; preds = %spin_acquire_lock.exit
  store atomic i32 0, ptr getelementptr inbounds nuw (i8, ptr @_gm_, i64 884) release, align 4
  br label %21

21:                                               ; preds = %spin_acquire_lock.exit, %20
  ret i32 %17
}